target datalayout = "e-m:e-p270:32:32-p271:32:32-p272:64:64-i64:64-i128:128-f80:128-n8:16:32:64-S128"
target triple = "x86_64-pc-linux-gnu"

%struct.PJconsts = type { ptr, ptr, ptr, ptr, ptr, ptr, ptr, ptr, ptr, ptr, ptr, ptr, i32, ptr, ptr, ptr, ptr, ptr, ptr, ptr, ptr, double, double, double, double, double, double, double, double, double, double, double, double, double, double, double, double, double, double, double, double, double, double, i32, i32, i32, i32, i32, i32, i32, i32, i32, i32, i32, ptr, ptr, ptr, ptr, ptr, ptr, double, double, double, double, double, double, double, double, double, double, double, i32, [7 x double], i32, ptr, ptr, double, double, i32, [4 x i8], %"class.std::shared_ptr", i8, double, i8, %"class.std::__cxx11::basic_string", %"class.std::__cxx11::basic_string", %"class.std::__cxx11::basic_string", i8, %"class.std::vector", i32, %"class.std::vector.3", i32, i8, i8, i8, ptr }
%"class.std::shared_ptr" = type { %"class.std::__shared_ptr" }
%"class.std::__shared_ptr" = type { ptr, %"class.std::__shared_count" }
%"class.std::__shared_count" = type { ptr }
%"class.std::__cxx11::basic_string" = type { %"struct.std::__cxx11::basic_string<char>::_Alloc_hider", i64, %union.anon }
%"struct.std::__cxx11::basic_string<char>::_Alloc_hider" = type { ptr }
%union.anon = type { i64, [8 x i8] }
%"class.std::vector" = type { %"struct.std::_Vector_base" }
%"struct.std::_Vector_base" = type { %"struct.std::_Vector_base<osgeo::proj::operation::GridDescription, std::allocator<osgeo::proj::operation::GridDescription>>::_Vector_impl" }
%"struct.std::_Vector_base<osgeo::proj::operation::GridDescription, std::allocator<osgeo::proj::operation::GridDescription>>::_Vector_impl" = type { %"struct.std::_Vector_base<osgeo::proj::operation::GridDescription, std::allocator<osgeo::proj::operation::GridDescription>>::_Vector_impl_data" }
%"struct.std::_Vector_base<osgeo::proj::operation::GridDescription, std::allocator<osgeo::proj::operation::GridDescription>>::_Vector_impl_data" = type { ptr, ptr, ptr }
%"class.std::vector.3" = type { %"struct.std::_Vector_base.4" }
%"struct.std::_Vector_base.4" = type { %"struct.std::_Vector_base<PJCoordOperation, std::allocator<PJCoordOperation>>::_Vector_impl" }
%"struct.std::_Vector_base<PJCoordOperation, std::allocator<PJCoordOperation>>::_Vector_impl" = type { %"struct.std::_Vector_base<PJCoordOperation, std::allocator<PJCoordOperation>>::_Vector_impl_data" }
%"struct.std::_Vector_base<PJCoordOperation, std::allocator<PJCoordOperation>>::_Vector_impl_data" = type { ptr, ptr, ptr }
%"struct.(anonymous namespace)::Set" = type { i8, i8, i8, i8, double, double, double, double }

; Function Attrs: mustprogress nounwind uwtable
define internal void @_ZL11set_fwd_invR8PJ_COORDP8PJconsts(ptr noundef nonnull align 8 dereferenceable(32) %0, ptr noundef %1) #2 {
  %3 = alloca ptr, align 8
  %4 = alloca ptr, align 8
  %5 = alloca ptr, align 8
  store ptr %0, ptr %3, align 8, !tbaa !58
  store ptr %1, ptr %4, align 8, !tbaa !3
  call void @llvm.lifetime.start.p0(i64 8, ptr %5) #5
  %6 = load ptr, ptr %4, align 8, !tbaa !3
  %7 = getelementptr inbounds nuw %struct.PJconsts, ptr %6, i32 0, i32 11
  %8 = load ptr, ptr %7, align 8, !tbaa !45
  store ptr %8, ptr %5, align 8, !tbaa !43
  %9 = load ptr, ptr %5, align 8, !tbaa !43
  %10 = getelementptr inbounds nuw %"struct.(anonymous namespace)::Set", ptr %9, i32 0, i32 0
  %11 = load i8, ptr %10, align 8, !tbaa !47, !range !60, !noundef !61
  %12 = trunc i8 %11 to i1
  br i1 %12, label %13, label %19

13:                                               ; preds = %2
  %14 = load ptr, ptr %5, align 8, !tbaa !43
  %15 = getelementptr inbounds nuw %"struct.(anonymous namespace)::Set", ptr %14, i32 0, i32 4
  %16 = load double, ptr %15, align 8, !tbaa !51
  %17 = load ptr, ptr %3, align 8, !tbaa !58
  %18 = getelementptr inbounds [4 x double], ptr %17, i64 0, i64 0
  store double %16, ptr %18, align 8, !tbaa !50
  br label %19

19:                                               ; preds = %13, %2
  %20 = load ptr, ptr %5, align 8, !tbaa !43
  %21 = getelementptr inbounds nuw %"struct.(anonymous namespace)::Set", ptr %20, i32 0, i32 1
  %22 = load i8, ptr %21, align 1, !tbaa !52, !range !60, !noundef !61
  %23 = trunc i8 %22 to i1
  br i1 %23, label %24, label %30

24:                                               ; preds = %19
  %25 = load ptr, ptr %5, align 8, !tbaa !43
  %26 = getelementptr inbounds nuw %"struct.(anonymous namespace)::Set", ptr %25, i32 0, i32 5
  %27 = load double, ptr %26, align 8, !tbaa !53
  %28 = load ptr, ptr %3, align 8, !tbaa !58
  %29 = getelementptr inbounds [4 x double], ptr %28, i64 0, i64 1
  store double %27, ptr %29, align 8, !tbaa !50
  br label %30

30:                                               ; preds = %24, %19
  %31 = load ptr, ptr %5, align 8, !tbaa !43
  %32 = getelementptr inbounds nuw %"struct.(anonymous namespace)::Set", ptr %31, i32 0, i32 2
  %33 = load i8, ptr %32, align 2, !tbaa !54, !range !60, !noundef !61
  %34 = trunc i8 %33 to i1
  br i1 %34, label %35, label %41

35:                                               ; preds = %30
  %36 = load ptr, ptr %5, align 8, !tbaa !43
  %37 = getelementptr inbounds nuw %"struct.(anonymous namespace)::Set", ptr %36, i32 0, i32 6
  %38 = load double, ptr %37, align 8, !tbaa !55
  %39 = load ptr, ptr %3, align 8, !tbaa !58
  %40 = getelementptr inbounds [4 x double], ptr %39, i64 0, i64 2
  store double %38, ptr %40, align 8, !tbaa !50
  br label %41

41:                                               ; preds = %35, %30
  %42 = load ptr, ptr %5, align 8, !tbaa !43
  %43 = getelementptr inbounds nuw %"struct.(anonymous namespace)::Set", ptr %42, i32 0, i32 3
  %44 = load i8, ptr %43, align 1, !tbaa !56, !range !60, !noundef !61
  %45 = trunc i8 %44 to i1
  br i1 %45, label %46, label %52

46:                                               ; preds = %41
  %47 = load ptr, ptr %5, align 8, !tbaa !43
  %48 = getelementptr inbounds nuw %"struct.(anonymous namespace)::Set", ptr %47, i32 0, i32 7
  %49 = load double, ptr %48, align 8, !tbaa !57
  %50 = load ptr, ptr %3, align 8, !tbaa !58
  %51 = getelementptr inbounds [4 x double], ptr %50, i64 0, i64 3
  store double %49, ptr %51, align 8, !tbaa !50
  br label %52

52:                                               ; preds = %46, %41
  call void @llvm.lifetime.end.p0(i64 8, ptr %5) #5
  ret void
}