; Function Attrs: mustprogress nofree norecurse nosync nounwind willreturn memory(read, argmem: readwrite, inaccessiblemem: none) uwtable
define internal void @_ZL11set_fwd_invR8PJ_COORDP8PJconsts(ptr noundef nonnull writeonly align 8 captures(none) dereferenceable(32) %0, ptr noundef readonly captures(none) %1) #2 {
  %3 = getelementptr inbounds nuw i8, ptr %1, i64 88
  %4 = load ptr, ptr %3, align 8, !tbaa !42
  %5 = load i8, ptr %4, align 8, !tbaa !44, !range !54, !noundef !55
  %6 = trunc nuw i8 %5 to i1
  br i1 %6, label %7, label %10

7:                                                ; preds = %2
  %8 = getelementptr inbounds nuw i8, ptr %4, i64 8
  %9 = load double, ptr %8, align 8, !tbaa !47
  store double %9, ptr %0, align 8, !tbaa !56
  br label %10

10:                                               ; preds = %7, %2
  %11 = getelementptr inbounds nuw i8, ptr %4, i64 1
  %12 = load i8, ptr %11, align 1, !tbaa !48, !range !54, !noundef !55
  %13 = trunc nuw i8 %12 to i1
  br i1 %13, label %14, label %18

14:                                               ; preds = %10
  %15 = getelementptr inbounds nuw i8, ptr %4, i64 16
  %16 = load double, ptr %15, align 8, !tbaa !49
  %17 = getelementptr inbounds nuw i8, ptr %0, i64 8
  store double %16, ptr %17, align 8, !tbaa !56
  br label %18

18:                                               ; preds = %14, %10
  %19 = getelementptr inbounds nuw i8, ptr %4, i64 2
  %20 = load i8, ptr %19, align 2, !tbaa !50, !range !54, !noundef !55
  %21 = trunc nuw i8 %20 to i1
  br i1 %21, label %22, label %26

22:                                               ; preds = %18
  %23 = getelementptr inbounds nuw i8, ptr %4, i64 24
  %24 = load double, ptr %23, align 8, !tbaa !51
  %25 = getelementptr inbounds nuw i8, ptr %0, i64 16
  store double %24, ptr %25, align 8, !tbaa !56
  br label %26

26:                                               ; preds = %22, %18
  %27 = getelementptr inbounds nuw i8, ptr %4, i64 3
  %28 = load i8, ptr %27, align 1, !tbaa !52, !range !54, !noundef !55
  %29 = trunc nuw i8 %28 to i1
  br i1 %29, label %30, label %34

30:                                               ; preds = %26
  %31 = getelementptr inbounds nuw i8, ptr %4, i64 32
  %32 = load double, ptr %31, align 8, !tbaa !53
  %33 = getelementptr inbounds nuw i8, ptr %0, i64 24
  store double %32, ptr %33, align 8, !tbaa !56
  br label %34

34:                                               ; preds = %30, %26
  ret void
}